; Function Attrs: mustprogress nofree norecurse nosync nounwind willreturn memory(argmem: read) uwtable
define noundef zeroext i1 @_ZNK32pxrInternal_v0_24__pxrReserved__14HdReprSelector8ContainsERKNS_7TfTokenE(ptr nocapture noundef nonnull readonly align 8 dereferenceable(24) %0, ptr nocapture noundef nonnull readonly align 8 dereferenceable(8) %1) local_unnamed_addr #0 align 2 personality ptr @__gxx_personality_v0 {
  %3 = load ptr, ptr %1, align 8
  %4 = ptrtoint ptr %3 to i64
  %5 = and i64 %4, -8
  %6 = inttoptr i64 %5 to ptr
  %7 = load ptr, ptr %0, align 8
  %8 = ptrtoint ptr %7 to i64
  %9 = and i64 %8, -8
  %10 = inttoptr i64 %9 to ptr
  %11 = icmp eq ptr %6, %10
  br i1 %11, label %26, label %12

12:                                               ; preds = %2
  %13 = getelementptr inbounds nuw i8, ptr %0, i64 8
  %14 = load ptr, ptr %13, align 8
  %15 = ptrtoint ptr %14 to i64
  %16 = and i64 %15, -8
  %17 = inttoptr i64 %16 to ptr
  %18 = icmp eq ptr %6, %17
  br i1 %18, label %26, label %19

19:                                               ; preds = %12
  %20 = getelementptr inbounds nuw i8, ptr %0, i64 16
  %21 = load ptr, ptr %20, align 8
  %22 = ptrtoint ptr %21 to i64
  %23 = and i64 %22, -8
  %24 = inttoptr i64 %23 to ptr
  %25 = icmp eq ptr %6, %24
  br label %26

26:                                               ; preds = %19, %12, %2
  %27 = phi i1 [ true, %12 ], [ true, %2 ], [ %25, %19 ]
  ret i1 %27
}